; Function Attrs: nounwind sspstrong uwtable
define internal noundef i64 @cState_object_nl_set(i64 noundef %0, i64 noundef %1) #0 {
  %3 = tail call ptr @rb_check_typeddata(i64 noundef %0, ptr noundef nonnull @JSON_Generator_State_type) #22
  %4 = getelementptr inbounds nuw i8, ptr %3, i64 24
  %5 = and i64 %1, -5
  %.not5.i = icmp eq i64 %5, 0
  br i1 %.not5.i, label %string_config.exit.thread, label %6

6:                                                ; preds = %2
  %7 = and i64 %1, 7
  %.not6.i = icmp eq i64 %7, 0
  br i1 %.not6.i, label %8, label %rbimpl_RB_TYPE_P_fastpath.exit.thread.i.i, !prof !22

8:                                                ; preds = %6
  %9 = inttoptr i64 %1 to ptr
  %10 = load i64, ptr %9, align 8, !tbaa !23
  %11 = and i64 %10, 31
  %12 = icmp eq i64 %11, 5
  br i1 %12, label %Check_Type.exit.i, label %rbimpl_RB_TYPE_P_fastpath.exit.thread.i.i, !prof !24

rbimpl_RB_TYPE_P_fastpath.exit.thread.i.i:        ; preds = %8, %6
  tail call void @rb_unexpected_type(i64 noundef %1, i32 noundef 5) #25
  unreachable

Check_Type.exit.i:                                ; preds = %8
  %13 = getelementptr inbounds nuw i8, ptr %9, i64 16
  %14 = load i64, ptr %13, align 8, !tbaa !31
  %.not.i = icmp eq i64 %14, 0
  br i1 %.not.i, label %string_config.exit.thread, label %string_config.exit

string_config.exit.thread:                        ; preds = %Check_Type.exit.i, %2
  store i64 0, ptr %4, align 8, !tbaa !6
  br label %rb_obj_write.exit

string_config.exit:                               ; preds = %Check_Type.exit.i
  %15 = tail call i64 @rb_str_new_frozen(i64 noundef %1) #22
  store i64 %15, ptr %4, align 8, !tbaa !6
  %16 = icmp eq i64 %15, 0
  %17 = and i64 %15, 7
  %18 = icmp ne i64 %17, 0
  %19 = or i1 %16, %18
  br i1 %19, label %rb_obj_write.exit, label %20

20:                                               ; preds = %string_config.exit
  tail call void @rb_gc_writebarrier(i64 noundef %0, i64 noundef %15) #22
  br label %rb_obj_write.exit

rb_obj_write.exit:                                ; preds = %string_config.exit.thread, %string_config.exit, %20
  ret i64 4
}